target datalayout = "e-m:e-p270:32:32-p271:32:32-p272:64:64-i64:64-i128:128-f80:128-n8:16:32:64-S128"
target triple = "x86_64-pc-linux-gnu"

%struct.strbuf = type { i64, i64, ptr }
%struct.object_id = type { [32 x i8], i32 }
%struct.commit = type { %struct.object, i64, ptr, ptr, i32 }
%struct.object = type { i32, %struct.object_id }
%struct.object_array = type { i32, i32, ptr }
%struct.commit_list = type { ptr, ptr }
%struct.rev_info = type { ptr, %struct.object_array, ptr, %struct.object_array, %struct.rev_cmdline_info, %struct.list_objects_filter_options, %struct.ref_exclusions, ptr, ptr, ptr, %struct.pathspec, i32, i32, i32, i32, i64, i32, i32, %struct.date_mode, i32, i32, i32, i32, ptr, i32, i32, ptr, ptr, i32, ptr, ptr, %struct.ident_split, ptr, i32, ptr, ptr, ptr, i32, i32, i32, ptr, %struct.grep_opt, ptr, i32, i32, i64, i64, i64, i32, i32, ptr, ptr, ptr, %struct.diff_options, %struct.diff_options, ptr, %struct.decoration, %struct.decoration, %struct.decoration, %struct.display_notes_opt, ptr, ptr, ptr, ptr, ptr, i32, ptr, i32, i32, i32, %struct.decoration, ptr, ptr, ptr, ptr, ptr, ptr, ptr, i32, ptr, i32, ptr, %struct.oidset }
%struct.rev_cmdline_info = type { i32, i32, ptr }
%struct.list_objects_filter_options = type { %struct.strbuf, i32, i8, ptr, i64, i64, i32, i64, i64, ptr }
%struct.ref_exclusions = type { %struct.string_list, %struct.strvec, i8 }
%struct.string_list = type { ptr, i64, i64, i8, ptr }
%struct.strvec = type { ptr, i64, i64 }
%struct.pathspec = type { i32, i8, i32, i32, ptr }
%struct.date_mode = type { i32, i32, ptr }
%struct.ident_split = type { ptr, ptr, ptr, ptr, ptr, ptr, ptr, ptr }
%struct.grep_opt = type { ptr, ptr, ptr, ptr, ptr, ptr, i32, i32, i32, i32, i32, i32, i32, i32, i32, i32, i32, i32, i32, i32, i32, i32, i32, i32, i32, i32, i32, i32, i32, i32, i32, i32, [9 x [75 x i8]], i32, i32, i32, i32, i32, i32, i32, ptr, ptr, ptr }
%struct.diff_options = type { ptr, ptr, i32, i32, ptr, i32, ptr, i64, i64, ptr, ptr, ptr, ptr, %struct.diff_flags, i32, i32, i32, i32, i32, i32, i32, i32, i32, i32, i32, i32, i32, i32, i32, i32, i32, i32, i32, i32, i32, i32, ptr, i32, ptr, i32, i32, ptr, i64, i64, i32, i32, i32, i32, ptr, i32, i32, ptr, i32, i32, ptr, ptr, i32, [3 x i8], %struct.pathspec, ptr, ptr, ptr, ptr, ptr, ptr, ptr, ptr, i32, ptr, i32, i32, ptr, ptr, i32 }
%struct.diff_flags = type { i32, i32, i32, i32, i32, i32, i32, i32, i32, i32, i32, i32, i32, i32, i32, i32, i32, i32, i32, i32, i32, i32, i32, i32, i32, i32, i32, i32, i32, i32, i32, i32, i32, i32, i32 }
%struct.display_notes_opt = type { i32, %struct.string_list }
%struct.decoration = type { ptr, i32, i32, ptr }
%struct.oidset = type { %struct.kh_oid_set }
%struct.kh_oid_set = type { i32, i32, i32, i32, ptr, ptr, ptr }

@the_repository = external global ptr, align 8
@save_commit_buffer = external global i32, align 4
@.str.4 = private unnamed_addr constant [27 x i8] c"revision walk setup failed\00", align 1
@.str.5 = private unnamed_addr constant [41 x i8] c"no commits selected for shallow requests\00", align 1
@.str.6 = private unnamed_addr constant [26 x i8] c"unable to parse commit %s\00", align 1

; Function Attrs: inlinehint nounwind uwtable
define internal i32 @repo_parse_commit(ptr noundef %0, ptr noundef %1) #3 {
  %3 = alloca ptr, align 8
  %4 = alloca ptr, align 8
  store ptr %0, ptr %3, align 8, !tbaa !4
  store ptr %1, ptr %4, align 8, !tbaa !44
  %5 = load ptr, ptr %3, align 8, !tbaa !4
  %6 = load ptr, ptr %4, align 8, !tbaa !44
  %7 = call i32 @repo_parse_commit_gently(ptr noundef %5, ptr noundef %6, i32 noundef 0)
  ret i32 %7
}

; Function Attrs: inlinehint nounwind uwtable
define internal void @traverse_commit_list(ptr noundef %0, ptr noundef %1, ptr noundef %2, ptr noundef %3) #3 {
  %5 = alloca ptr, align 8
  %6 = alloca ptr, align 8
  %7 = alloca ptr, align 8
  %8 = alloca ptr, align 8
  store ptr %0, ptr %5, align 8, !tbaa !103
  store ptr %1, ptr %6, align 8, !tbaa !55
  store ptr %2, ptr %7, align 8, !tbaa !55
  store ptr %3, ptr %8, align 8, !tbaa !55
  %9 = load ptr, ptr %5, align 8, !tbaa !103
  %10 = load ptr, ptr %6, align 8, !tbaa !55
  %11 = load ptr, ptr %7, align 8, !tbaa !55
  %12 = load ptr, ptr %8, align 8, !tbaa !55
  call void @traverse_commit_list_filtered(ptr noundef %9, ptr noundef %10, ptr noundef %11, ptr noundef %12, ptr noundef null)
  ret void
}

; Function Attrs: nounwind uwtable
define dso_local ptr @get_shallow_commits_by_rev_list(i32 noundef %0, ptr noundef %1, i32 noundef %2, i32 noundef %3) #0 {
  %5 = alloca i32, align 4
  %6 = alloca ptr, align 8
  %7 = alloca i32, align 4
  %8 = alloca i32, align 4
  %9 = alloca ptr, align 8
  %10 = alloca ptr, align 8
  %11 = alloca ptr, align 8
  %12 = alloca %struct.rev_info, align 8
  %13 = alloca i32, align 4
  %14 = alloca ptr, align 8
  %15 = alloca ptr, align 8
  %16 = alloca ptr, align 8
  store i32 %0, ptr %5, align 4, !tbaa !11
  store ptr %1, ptr %6, align 8, !tbaa !96
  store i32 %2, ptr %7, align 4, !tbaa !11
  store i32 %3, ptr %8, align 4, !tbaa !11
  call void @llvm.lifetime.start.p0(i64 8, ptr %9) #12
  store ptr null, ptr %9, align 8, !tbaa !69
  call void @llvm.lifetime.start.p0(i64 8, ptr %10) #12
  call void @llvm.lifetime.start.p0(i64 8, ptr %11) #12
  store ptr null, ptr %11, align 8, !tbaa !69
  call void @llvm.lifetime.start.p0(i64 3008, ptr %12) #12
  call void @llvm.lifetime.start.p0(i64 4, ptr %13) #12
  %17 = load i32, ptr %7, align 4, !tbaa !11
  %18 = load i32, ptr %8, align 4, !tbaa !11
  %19 = or i32 %17, %18
  store i32 %19, ptr %13, align 4, !tbaa !11
  %20 = load i32, ptr %13, align 4, !tbaa !11
  call void @clear_object_flags(i32 noundef %20)
  %21 = load ptr, ptr @the_repository, align 8, !tbaa !4
  %22 = call i32 @is_repository_shallow(ptr noundef %21)
  %23 = load ptr, ptr @the_repository, align 8, !tbaa !4
  call void @repo_init_revisions(ptr noundef %23, ptr noundef %12, ptr noundef null)
  store i32 0, ptr @save_commit_buffer, align 4, !tbaa !11
  %24 = load i32, ptr %5, align 4, !tbaa !11
  %25 = load ptr, ptr %6, align 8, !tbaa !96
  %26 = call i32 @setup_revisions(i32 noundef %24, ptr noundef %25, ptr noundef %12, ptr noundef null)
  %27 = call i32 @prepare_revision_walk(ptr noundef %12)
  %28 = icmp ne i32 %27, 0
  br i1 %28, label %29, label %30

29:                                               ; preds = %4
  call void (ptr, ...) @die(ptr noundef @.str.4) #11
  unreachable

30:                                               ; preds = %4
  call void @traverse_commit_list(ptr noundef %12, ptr noundef @show_commit, ptr noundef null, ptr noundef %11)
  %31 = load ptr, ptr %11, align 8, !tbaa !69
  %32 = icmp ne ptr %31, null
  br i1 %32, label %34, label %33

33:                                               ; preds = %30
  call void (ptr, ...) @die(ptr noundef @.str.5) #11
  unreachable

34:                                               ; preds = %30
  %35 = load ptr, ptr %11, align 8, !tbaa !69
  store ptr %35, ptr %10, align 8, !tbaa !69
  br label %36

36:                                               ; preds = %53, %34
  %37 = load ptr, ptr %10, align 8, !tbaa !69
  %38 = icmp ne ptr %37, null
  br i1 %38, label %39, label %57

39:                                               ; preds = %36
  %40 = load i32, ptr %8, align 4, !tbaa !11
  %41 = load ptr, ptr %10, align 8, !tbaa !69
  %42 = getelementptr inbounds nuw %struct.commit_list, ptr %41, i32 0, i32 0
  %43 = load ptr, ptr %42, align 8, !tbaa !82
  %44 = getelementptr inbounds nuw %struct.commit, ptr %43, i32 0, i32 0
  %45 = load i32, ptr %44, align 8
  %46 = lshr i32 %45, 4
  %47 = or i32 %46, %40
  %48 = load i32, ptr %44, align 8
  %49 = and i32 %47, 268435455
  %50 = shl i32 %49, 4
  %51 = and i32 %48, 15
  %52 = or i32 %51, %50
  store i32 %52, ptr %44, align 8
  br label %53

53:                                               ; preds = %39
  %54 = load ptr, ptr %10, align 8, !tbaa !69
  %55 = getelementptr inbounds nuw %struct.commit_list, ptr %54, i32 0, i32 1
  %56 = load ptr, ptr %55, align 8, !tbaa !84
  store ptr %56, ptr %10, align 8, !tbaa !69
  br label %36, !llvm.loop !98

57:                                               ; preds = %36
  %58 = load ptr, ptr %11, align 8, !tbaa !69
  store ptr %58, ptr %10, align 8, !tbaa !69
  br label %59

59:                                               ; preds = %112, %57
  %60 = load ptr, ptr %10, align 8, !tbaa !69
  %61 = icmp ne ptr %60, null
  br i1 %61, label %62, label %116

62:                                               ; preds = %59
  call void @llvm.lifetime.start.p0(i64 8, ptr %14) #12
  %63 = load ptr, ptr %10, align 8, !tbaa !69
  %64 = getelementptr inbounds nuw %struct.commit_list, ptr %63, i32 0, i32 0
  %65 = load ptr, ptr %64, align 8, !tbaa !82
  store ptr %65, ptr %14, align 8, !tbaa !44
  call void @llvm.lifetime.start.p0(i64 8, ptr %15) #12
  %66 = load ptr, ptr @the_repository, align 8, !tbaa !4
  %67 = load ptr, ptr %14, align 8, !tbaa !44
  %68 = call i32 @repo_parse_commit(ptr noundef %66, ptr noundef %67)
  %69 = icmp ne i32 %68, 0
  br i1 %69, label %70, label %75

70:                                               ; preds = %62
  %71 = load ptr, ptr %14, align 8, !tbaa !44
  %72 = getelementptr inbounds nuw %struct.commit, ptr %71, i32 0, i32 0
  %73 = getelementptr inbounds nuw %struct.object, ptr %72, i32 0, i32 1
  %74 = call ptr @oid_to_hex(ptr noundef %73)
  call void (ptr, ...) @die(ptr noundef @.str.6, ptr noundef %74) #11
  unreachable

75:                                               ; preds = %62
  %76 = load ptr, ptr %14, align 8, !tbaa !44
  %77 = getelementptr inbounds nuw %struct.commit, ptr %76, i32 0, i32 2
  %78 = load ptr, ptr %77, align 8, !tbaa !46
  store ptr %78, ptr %15, align 8, !tbaa !69
  br label %79

79:                                               ; preds = %107, %75
  %80 = load ptr, ptr %15, align 8, !tbaa !69
  %81 = icmp ne ptr %80, null
  br i1 %81, label %82, label %111

82:                                               ; preds = %79
  %83 = load ptr, ptr %15, align 8, !tbaa !69
  %84 = getelementptr inbounds nuw %struct.commit_list, ptr %83, i32 0, i32 0
  %85 = load ptr, ptr %84, align 8, !tbaa !82
  %86 = getelementptr inbounds nuw %struct.commit, ptr %85, i32 0, i32 0
  %87 = load i32, ptr %86, align 8
  %88 = lshr i32 %87, 4
  %89 = load i32, ptr %8, align 4, !tbaa !11
  %90 = and i32 %88, %89
  %91 = icmp ne i32 %90, 0
  br i1 %91, label %106, label %92

92:                                               ; preds = %82
  %93 = load i32, ptr %7, align 4, !tbaa !11
  %94 = load ptr, ptr %14, align 8, !tbaa !44
  %95 = getelementptr inbounds nuw %struct.commit, ptr %94, i32 0, i32 0
  %96 = load i32, ptr %95, align 8
  %97 = lshr i32 %96, 4
  %98 = or i32 %97, %93
  %99 = load i32, ptr %95, align 8
  %100 = and i32 %98, 268435455
  %101 = shl i32 %100, 4
  %102 = and i32 %99, 15
  %103 = or i32 %102, %101
  store i32 %103, ptr %95, align 8
  %104 = load ptr, ptr %14, align 8, !tbaa !44
  %105 = call ptr @commit_list_insert(ptr noundef %104, ptr noundef %9)
  br label %111

106:                                              ; preds = %82
  br label %107

107:                                              ; preds = %106
  %108 = load ptr, ptr %15, align 8, !tbaa !69
  %109 = getelementptr inbounds nuw %struct.commit_list, ptr %108, i32 0, i32 1
  %110 = load ptr, ptr %109, align 8, !tbaa !84
  store ptr %110, ptr %15, align 8, !tbaa !69
  br label %79, !llvm.loop !99

111:                                              ; preds = %92, %79
  call void @llvm.lifetime.end.p0(i64 8, ptr %15) #12
  call void @llvm.lifetime.end.p0(i64 8, ptr %14) #12
  br label %112

112:                                              ; preds = %111
  %113 = load ptr, ptr %10, align 8, !tbaa !69
  %114 = getelementptr inbounds nuw %struct.commit_list, ptr %113, i32 0, i32 1
  %115 = load ptr, ptr %114, align 8, !tbaa !84
  store ptr %115, ptr %10, align 8, !tbaa !69
  br label %59, !llvm.loop !100

116:                                              ; preds = %59
  %117 = load ptr, ptr %11, align 8, !tbaa !69
  call void @free_commit_list(ptr noundef %117)
  %118 = load ptr, ptr %9, align 8, !tbaa !69
  store ptr %118, ptr %10, align 8, !tbaa !69
  br label %119

119:                                              ; preds = %147, %116
  %120 = load ptr, ptr %10, align 8, !tbaa !69
  %121 = icmp ne ptr %120, null
  br i1 %121, label %122, label %151

122:                                              ; preds = %119
  call void @llvm.lifetime.start.p0(i64 8, ptr %16) #12
  %123 = load ptr, ptr %10, align 8, !tbaa !69
  %124 = getelementptr inbounds nuw %struct.commit_list, ptr %123, i32 0, i32 0
  %125 = load ptr, ptr %124, align 8, !tbaa !82
  %126 = getelementptr inbounds nuw %struct.commit, ptr %125, i32 0, i32 0
  store ptr %126, ptr %16, align 8, !tbaa !101
  %127 = load ptr, ptr %16, align 8, !tbaa !101
  %128 = load i32, ptr %127, align 4
  %129 = lshr i32 %128, 4
  %130 = load i32, ptr %13, align 4, !tbaa !11
  %131 = and i32 %129, %130
  %132 = load i32, ptr %13, align 4, !tbaa !11
  %133 = icmp eq i32 %131, %132
  br i1 %133, label %134, label %146

134:                                              ; preds = %122
  %135 = load i32, ptr %8, align 4, !tbaa !11
  %136 = xor i32 %135, -1
  %137 = load ptr, ptr %16, align 8, !tbaa !101
  %138 = load i32, ptr %137, align 4
  %139 = lshr i32 %138, 4
  %140 = and i32 %139, %136
  %141 = load i32, ptr %137, align 4
  %142 = and i32 %140, 268435455
  %143 = shl i32 %142, 4
  %144 = and i32 %141, 15
  %145 = or i32 %144, %143
  store i32 %145, ptr %137, align 4
  br label %146

146:                                              ; preds = %134, %122
  call void @llvm.lifetime.end.p0(i64 8, ptr %16) #12
  br label %147

147:                                              ; preds = %146
  %148 = load ptr, ptr %10, align 8, !tbaa !69
  %149 = getelementptr inbounds nuw %struct.commit_list, ptr %148, i32 0, i32 1
  %150 = load ptr, ptr %149, align 8, !tbaa !84
  store ptr %150, ptr %10, align 8, !tbaa !69
  br label %119, !llvm.loop !102

151:                                              ; preds = %119
  call void @release_revisions(ptr noundef %12)
  %152 = load ptr, ptr %9, align 8, !tbaa !69
  call void @llvm.lifetime.end.p0(i64 4, ptr %13) #12
  call void @llvm.lifetime.end.p0(i64 3008, ptr %12) #12
  call void @llvm.lifetime.end.p0(i64 8, ptr %11) #12
  call void @llvm.lifetime.end.p0(i64 8, ptr %10) #12
  call void @llvm.lifetime.end.p0(i64 8, ptr %9) #12
  ret ptr %152
}