; Function Attrs: nounwind uwtable
define dso_local ptr @get_shallow_commits_by_rev_list(i32 noundef %0, ptr noundef %1, i32 noundef %2, i32 noundef %3) local_unnamed_addr #0 {
  %5 = alloca ptr, align 8
  %6 = alloca ptr, align 8
  %7 = alloca %struct.rev_info, align 8
  call void @llvm.lifetime.start.p0(i64 8, ptr nonnull %5) #15
  store ptr null, ptr %5, align 8, !tbaa !54
  call void @llvm.lifetime.start.p0(i64 8, ptr nonnull %6) #15
  store ptr null, ptr %6, align 8, !tbaa !54
  call void @llvm.lifetime.start.p0(i64 3008, ptr nonnull %7) #15
  %8 = or i32 %3, %2
  tail call void @clear_object_flags(i32 noundef %8) #15
  %9 = load ptr, ptr @the_repository, align 8, !tbaa !45
  %10 = tail call i32 @is_repository_shallow(ptr noundef %9)
  %11 = load ptr, ptr @the_repository, align 8, !tbaa !45
  call void @repo_init_revisions(ptr noundef %11, ptr noundef nonnull %7, ptr noundef null) #15
  store i32 0, ptr @save_commit_buffer, align 4, !tbaa !39
  %12 = call i32 @setup_revisions(i32 noundef %0, ptr noundef %1, ptr noundef nonnull %7, ptr noundef null) #15
  %13 = call i32 @prepare_revision_walk(ptr noundef nonnull %7) #15
  %.not = icmp eq i32 %13, 0
  br i1 %.not, label %15, label %14

14:                                               ; preds = %4
  call void (ptr, ...) @die(ptr noundef nonnull @.str.4) #14
  unreachable

15:                                               ; preds = %4
  call void @traverse_commit_list_filtered(ptr noundef nonnull %7, ptr noundef nonnull @show_commit, ptr noundef null, ptr noundef nonnull %6, ptr noundef null) #15
  %16 = load ptr, ptr %6, align 8, !tbaa !54
  %.not31 = icmp eq ptr %16, null
  br i1 %.not31, label %18, label %.preheader38

.preheader38:                                     ; preds = %15
  %17 = shl i32 %3, 4
  br label %20

18:                                               ; preds = %15
  call void (ptr, ...) @die(ptr noundef nonnull @.str.5) #14
  unreachable

.preheader:                                       ; preds = %20
  %.143 = load ptr, ptr %6, align 8, !tbaa !54
  %.not3344 = icmp eq ptr %.143, null
  br i1 %.not3344, label %._crit_edge, label %.lr.ph46

.lr.ph46:                                         ; preds = %.preheader
  %19 = shl i32 %2, 4
  br label %26

20:                                               ; preds = %.preheader38, %20
  %.039 = phi ptr [ %16, %.preheader38 ], [ %25, %20 ]
  %21 = load ptr, ptr %.039, align 8, !tbaa !68
  %22 = load i32, ptr %21, align 8
  %23 = or i32 %22, %17
  store i32 %23, ptr %21, align 8
  %24 = getelementptr inbounds nuw i8, ptr %.039, i64 8
  %25 = load ptr, ptr %24, align 8, !tbaa !71
  %.not32 = icmp eq ptr %25, null
  br i1 %.not32, label %.preheader, label %20, !llvm.loop !76

26:                                               ; preds = %.lr.ph46, %.loopexit
  %.145 = phi ptr [ %.143, %.lr.ph46 ], [ %.1, %.loopexit ]
  %27 = load ptr, ptr %.145, align 8, !tbaa !68
  %28 = load ptr, ptr @the_repository, align 8, !tbaa !45
  %29 = call i32 @repo_parse_commit_gently(ptr noundef %28, ptr noundef %27, i32 noundef 0) #15
  %.not35 = icmp eq i32 %29, 0
  br i1 %.not35, label %33, label %30

30:                                               ; preds = %26
  %31 = getelementptr inbounds nuw i8, ptr %27, i64 4
  %32 = call ptr @oid_to_hex(ptr noundef nonnull %31) #15
  call void (ptr, ...) @die(ptr noundef nonnull @.str.6, ptr noundef %32) #14
  unreachable

33:                                               ; preds = %26
  %34 = getelementptr inbounds nuw i8, ptr %27, i64 48
  %.02940 = load ptr, ptr %34, align 8, !tbaa !54
  %.not3641 = icmp eq ptr %.02940, null
  br i1 %.not3641, label %.loopexit, label %.lr.ph

35:                                               ; preds = %.lr.ph
  %36 = getelementptr inbounds nuw i8, ptr %.02942, i64 8
  %.029 = load ptr, ptr %36, align 8, !tbaa !54
  %.not36 = icmp eq ptr %.029, null
  br i1 %.not36, label %.loopexit, label %.lr.ph, !llvm.loop !77

.lr.ph:                                           ; preds = %33, %35
  %.02942 = phi ptr [ %.029, %35 ], [ %.02940, %33 ]
  %37 = load ptr, ptr %.02942, align 8, !tbaa !68
  %38 = load i32, ptr %37, align 8
  %39 = lshr i32 %38, 4
  %40 = and i32 %39, %3
  %.not37 = icmp eq i32 %40, 0
  br i1 %.not37, label %41, label %35

41:                                               ; preds = %.lr.ph
  %42 = load i32, ptr %27, align 8
  %43 = or i32 %42, %19
  store i32 %43, ptr %27, align 8
  %44 = call ptr @commit_list_insert(ptr noundef nonnull %27, ptr noundef nonnull %5) #15
  br label %.loopexit

.loopexit:                                        ; preds = %35, %33, %41
  %45 = getelementptr inbounds nuw i8, ptr %.145, i64 8
  %.1 = load ptr, ptr %45, align 8, !tbaa !54
  %.not33 = icmp eq ptr %.1, null
  br i1 %.not33, label %._crit_edge.loopexit, label %26, !llvm.loop !78

._crit_edge.loopexit:                             ; preds = %.loopexit
  %.pre = load ptr, ptr %6, align 8, !tbaa !54
  br label %._crit_edge

._crit_edge:                                      ; preds = %._crit_edge.loopexit, %.preheader
  %46 = phi ptr [ %.pre, %._crit_edge.loopexit ], [ null, %.preheader ]
  call void @free_commit_list(ptr noundef %46) #15
  %.247 = load ptr, ptr %5, align 8, !tbaa !54
  %.not3448 = icmp eq ptr %.247, null
  br i1 %.not3448, label %._crit_edge52, label %.lr.ph51

.lr.ph51:                                         ; preds = %._crit_edge
  %47 = xor i32 %3, -1
  br label %48

48:                                               ; preds = %.lr.ph51, %59
  %.249 = phi ptr [ %.247, %.lr.ph51 ], [ %.2, %59 ]
  %49 = load ptr, ptr %.249, align 8, !tbaa !68
  %50 = load i32, ptr %49, align 4
  %51 = lshr i32 %50, 4
  %52 = and i32 %51, %8
  %53 = icmp eq i32 %52, %8
  br i1 %53, label %54, label %59

54:                                               ; preds = %48
  %55 = and i32 %51, %47
  %56 = shl nuw i32 %55, 4
  %57 = and i32 %50, 15
  %58 = or disjoint i32 %56, %57
  store i32 %58, ptr %49, align 4
  br label %59

59:                                               ; preds = %54, %48
  %60 = getelementptr inbounds nuw i8, ptr %.249, i64 8
  %.2 = load ptr, ptr %60, align 8, !tbaa !54
  %.not34 = icmp eq ptr %.2, null
  br i1 %.not34, label %._crit_edge52, label %48, !llvm.loop !79

._crit_edge52:                                    ; preds = %59, %._crit_edge
  call void @release_revisions(ptr noundef nonnull %7) #15
  %61 = load ptr, ptr %5, align 8, !tbaa !54
  call void @llvm.lifetime.end.p0(i64 3008, ptr nonnull %7) #15
  call void @llvm.lifetime.end.p0(i64 8, ptr nonnull %6) #15
  call void @llvm.lifetime.end.p0(i64 8, ptr nonnull %5) #15
  ret ptr %61
}